
out.elf:     file format elf32-tradlittlemips


Disassembly of section .config_BFC02FF0:

bfc02ff0 <__config_BFC02FF0>:
bfc02ff0:	ff ff fe fa                                         ....

Disassembly of section .config_BFC02FF4:

bfc02ff4 <__config_BFC02FF4>:
bfc02ff4:	d9 79 f8 ff                                         .y..

Disassembly of section .config_BFC02FF8:

bfc02ff8 <__config_BFC02FF8>:
bfc02ff8:	db ce 6c ff                                         ..l.

Disassembly of section .config_BFC02FFC:

bfc02ffc <__config_BFC02FFC>:
bfc02ffc:	ff ff ff 7e                                         ...~

Disassembly of section .reset:

bd001970 <_reset>:
bd001970:	0f40065e 	jal	bd001978 <_startup>
bd001974:	00000000 	nop

bd001978 <_startup>:
bd001978:	401a6000 	mfc0	k0,c0_status
bd00197c:	7f5a04c0 	ext	k0,k0,0x13,0x1
bd001980:	13400005 	beqz	k0,bd001998 <_no_nmi>
bd001984:	00000000 	nop
bd001988:	3c1a9d00 	lui	k0,0x9d00
bd00198c:	275a2b88 	addiu	k0,k0,11144
bd001990:	03400008 	jr	k0
bd001994:	00000000 	nop

bd001998 <_no_nmi>:
bd001998:	3c1da002 	lui	sp,0xa002
bd00199c:	27bdfff0 	addiu	sp,sp,-16
bd0019a0:	3c1ca000 	lui	gp,0xa000
bd0019a4:	279c7ff0 	addiu	gp,gp,32752
bd0019a8:	40096002 	mfc0	t1,c0_srsctl
bd0019ac:	01205820 	add	t3,t1,zero
bd0019b0:	7d2a1e80 	ext	t2,t1,0x1a,0x4
bd0019b4:	7d494984 	ins	t1,t2,0x6,0x4
bd0019b8:	40896002 	mtc0	t1,c0_srsctl
bd0019bc:	000000c0 	ehb
bd0019c0:	41dce000 	wrpgpr	gp,gp
bd0019c4:	408b6002 	mtc0	t3,c0_srsctl
bd0019c8:	000000c0 	ehb
bd0019cc:	3c089d00 	lui	t0,0x9d00
bd0019d0:	25082bb0 	addiu	t0,t0,11184
bd0019d4:	0100f809 	jalr	t0
bd0019d8:	00000000 	nop

bd0019dc <_start_bss_init>:
bd0019dc:	3c08a000 	lui	t0,0xa000
bd0019e0:	25080000 	addiu	t0,t0,0
bd0019e4:	3c09a000 	lui	t1,0xa000
bd0019e8:	25290000 	addiu	t1,t1,0
bd0019ec:	10000006 	b	bd001a08 <_bss_check>
bd0019f0:	00000000 	nop

bd0019f4 <_bss_init>:
bd0019f4:	ad000000 	sw	zero,0(t0)
bd0019f8:	ad000004 	sw	zero,4(t0)
bd0019fc:	ad000008 	sw	zero,8(t0)
bd001a00:	ad00000c 	sw	zero,12(t0)
bd001a04:	25080010 	addiu	t0,t0,16

bd001a08 <_bss_check>:
bd001a08:	0109082b 	sltu	at,t0,t1
bd001a0c:	1420fff9 	bnez	at,bd0019f4 <_bss_init>
bd001a10:	00000000 	nop
bd001a14:	3c089d00 	lui	t0,0x9d00
bd001a18:	250828dc 	addiu	t0,t0,10460
bd001a1c:	0100f809 	jalr	t0
bd001a20:	00000000 	nop
bd001a24:	3c090000 	lui	t1,0x0
bd001a28:	25290000 	addiu	t1,t1,0
bd001a2c:	11200010 	beqz	t1,bd001a70 <_ramfunc_done>
bd001a30:	00000000 	nop
bd001a34:	3c090002 	lui	t1,0x2
bd001a38:	25290000 	addiu	t1,t1,0
bd001a3c:	3c0abf88 	lui	t2,0xbf88
bd001a40:	254a2010 	addiu	t2,t2,8208
bd001a44:	ad490000 	sw	t1,0(t2)
bd001a48:	3c090002 	lui	t1,0x2
bd001a4c:	25290000 	addiu	t1,t1,0
bd001a50:	3c0abf88 	lui	t2,0xbf88
bd001a54:	254a2020 	addiu	t2,t2,8224
bd001a58:	ad490000 	sw	t1,0(t2)
bd001a5c:	3c090002 	lui	t1,0x2
bd001a60:	25290000 	addiu	t1,t1,0
bd001a64:	3c0abf88 	lui	t2,0xbf88
bd001a68:	254a2030 	addiu	t2,t2,8240
bd001a6c:	ad490000 	sw	t1,0(t2)

bd001a70 <_ramfunc_done>:
bd001a70:	40804800 	mtc0	zero,c0_count
bd001a74:	240affff 	li	t2,-1
bd001a78:	408a5800 	mtc0	t2,c0_compare
bd001a7c:	3c080040 	lui	t0,0x40
bd001a80:	400a6000 	mfc0	t2,c0_status
bd001a84:	010a5025 	or	t2,t0,t2
bd001a88:	408a6000 	mtc0	t2,c0_status
bd001a8c:	3c099d00 	lui	t1,0x9d00
bd001a90:	25290000 	addiu	t1,t1,0
bd001a94:	000000c0 	ehb
bd001a98:	40897801 	mtc0	t1,c0_ebase
bd001a9c:	3c090000 	lui	t1,0x0
bd001aa0:	25290001 	addiu	t1,t1,1
bd001aa4:	240a0000 	li	t2,0
bd001aa8:	7d2a4944 	ins	t2,t1,0x5,0x5
bd001aac:	408a6001 	mtc0	t2,c0_intctl
bd001ab0:	3c090080 	lui	t1,0x80
bd001ab4:	40896800 	mtc0	t1,c0_cause
bd001ab8:	40088000 	mfc0	t0,c0_config
bd001abc:	7d090580 	ext	t1,t0,0x16,0x1
bd001ac0:	00094c40 	sll	t1,t1,0x11
bd001ac4:	40086000 	mfc0	t0,c0_status
bd001ac8:	3c010058 	lui	at,0x58
bd001acc:	01014024 	and	t0,t0,at
bd001ad0:	01284025 	or	t0,t1,t0
bd001ad4:	40886000 	mtc0	t0,c0_status
bd001ad8:	000000c0 	ehb
bd001adc:	3c089d00 	lui	t0,0x9d00
bd001ae0:	25082bb8 	addiu	t0,t0,11192
bd001ae4:	0100f809 	jalr	t0
bd001ae8:	00000000 	nop
bd001aec:	40086000 	mfc0	t0,c0_status
bd001af0:	3c01ffbf 	lui	at,0xffbf
bd001af4:	3421ffff 	ori	at,at,0xffff
bd001af8:	01014024 	and	t0,t0,at
bd001afc:	40886000 	mtc0	t0,c0_status
bd001b00:	30840000 	andi	a0,a0,0x0
bd001b04:	30a50000 	andi	a1,a1,0x0
bd001b08:	3c089d00 	lui	t0,0x9d00
bd001b0c:	250829c8 	addiu	t0,t0,10696
bd001b10:	01000008 	jr	t0
bd001b14:	00000000 	nop

Disassembly of section .bev_excpt:

bd001cf0 <_bev_exception>:
bd001cf0:	3c1a9d00 	lui	k0,0x9d00
bd001cf4:	275a2a6c 	addiu	k0,k0,10860
bd001cf8:	03400008 	jr	k0
bd001cfc:	00000000 	nop

Disassembly of section .app_excpt:

9d000180 <_gen_exception>:
9d000180:	3c1a9d00 	lui	k0,0x9d00
9d000184:	275a26b8 	addiu	k0,k0,9912
9d000188:	03400008 	jr	k0
9d00018c:	00000000 	nop

Disassembly of section .vector_0:

9d000200 <__vector_dispatch_0>:
9d000200:	0b400abf 	j	9d002afc <.LFE0>
9d000204:	00000000 	nop

Disassembly of section .vector_1:

9d000220 <__vector_dispatch_1>:
9d000220:	0b400abf 	j	9d002afc <.LFE0>
9d000224:	00000000 	nop

Disassembly of section .vector_2:

9d000240 <__vector_dispatch_2>:
9d000240:	0b400abf 	j	9d002afc <.LFE0>
9d000244:	00000000 	nop

Disassembly of section .vector_3:

9d000260 <__vector_dispatch_3>:
9d000260:	0b400abf 	j	9d002afc <.LFE0>
9d000264:	00000000 	nop

Disassembly of section .vector_4:

9d000280 <__vector_dispatch_4>:
9d000280:	0b400abf 	j	9d002afc <.LFE0>
9d000284:	00000000 	nop

Disassembly of section .vector_5:

9d0002a0 <__vector_dispatch_5>:
9d0002a0:	0b400abf 	j	9d002afc <.LFE0>
9d0002a4:	00000000 	nop

Disassembly of section .vector_6:

9d0002c0 <__vector_dispatch_6>:
9d0002c0:	0b400abf 	j	9d002afc <.LFE0>
9d0002c4:	00000000 	nop

Disassembly of section .vector_7:

9d0002e0 <__vector_dispatch_7>:
9d0002e0:	0b400abf 	j	9d002afc <.LFE0>
9d0002e4:	00000000 	nop

Disassembly of section .vector_8:

9d000300 <__vector_dispatch_8>:
9d000300:	0b400abf 	j	9d002afc <.LFE0>
9d000304:	00000000 	nop

Disassembly of section .vector_9:

9d000320 <__vector_dispatch_9>:
9d000320:	0b400abf 	j	9d002afc <.LFE0>
9d000324:	00000000 	nop

Disassembly of section .vector_10:

9d000340 <__vector_dispatch_10>:
9d000340:	0b400abf 	j	9d002afc <.LFE0>
9d000344:	00000000 	nop

Disassembly of section .vector_11:

9d000360 <__vector_dispatch_11>:
9d000360:	0b400abf 	j	9d002afc <.LFE0>
9d000364:	00000000 	nop

Disassembly of section .vector_12:

9d000380 <__vector_dispatch_12>:
9d000380:	0b400abf 	j	9d002afc <.LFE0>
9d000384:	00000000 	nop

Disassembly of section .vector_13:

9d0003a0 <__vector_dispatch_13>:
9d0003a0:	0b400abf 	j	9d002afc <.LFE0>
9d0003a4:	00000000 	nop

Disassembly of section .vector_14:

9d0003c0 <__vector_dispatch_14>:
9d0003c0:	0b400abf 	j	9d002afc <.LFE0>
9d0003c4:	00000000 	nop

Disassembly of section .vector_15:

9d0003e0 <__vector_dispatch_15>:
9d0003e0:	0b400abf 	j	9d002afc <.LFE0>
9d0003e4:	00000000 	nop

Disassembly of section .vector_16:

9d000400 <__vector_dispatch_16>:
9d000400:	0b400abf 	j	9d002afc <.LFE0>
9d000404:	00000000 	nop

Disassembly of section .vector_17:

9d000420 <__vector_dispatch_17>:
9d000420:	0b400abf 	j	9d002afc <.LFE0>
9d000424:	00000000 	nop

Disassembly of section .vector_18:

9d000440 <__vector_dispatch_18>:
9d000440:	0b400abf 	j	9d002afc <.LFE0>
9d000444:	00000000 	nop

Disassembly of section .vector_19:

9d000460 <__vector_dispatch_19>:
9d000460:	0b400abf 	j	9d002afc <.LFE0>
9d000464:	00000000 	nop

Disassembly of section .vector_20:

9d000480 <__vector_dispatch_20>:
9d000480:	0b400abf 	j	9d002afc <.LFE0>
9d000484:	00000000 	nop

Disassembly of section .vector_21:

9d0004a0 <__vector_dispatch_21>:
9d0004a0:	0b400abf 	j	9d002afc <.LFE0>
9d0004a4:	00000000 	nop

Disassembly of section .vector_22:

9d0004c0 <__vector_dispatch_22>:
9d0004c0:	0b400abf 	j	9d002afc <.LFE0>
9d0004c4:	00000000 	nop

Disassembly of section .vector_23:

9d0004e0 <__vector_dispatch_23>:
9d0004e0:	0b400abf 	j	9d002afc <.LFE0>
9d0004e4:	00000000 	nop

Disassembly of section .vector_24:

9d000500 <__vector_dispatch_24>:
9d000500:	0b400abf 	j	9d002afc <.LFE0>
9d000504:	00000000 	nop

Disassembly of section .vector_25:

9d000520 <__vector_dispatch_25>:
9d000520:	0b400abf 	j	9d002afc <.LFE0>
9d000524:	00000000 	nop

Disassembly of section .vector_26:

9d000540 <__vector_dispatch_26>:
9d000540:	0b400abf 	j	9d002afc <.LFE0>
9d000544:	00000000 	nop

Disassembly of section .vector_27:

9d000560 <__vector_dispatch_27>:
9d000560:	0b400abf 	j	9d002afc <.LFE0>
9d000564:	00000000 	nop

Disassembly of section .vector_28:

9d000580 <__vector_dispatch_28>:
9d000580:	0b400abf 	j	9d002afc <.LFE0>
9d000584:	00000000 	nop

Disassembly of section .vector_29:

9d0005a0 <__vector_dispatch_29>:
9d0005a0:	0b400abf 	j	9d002afc <.LFE0>
9d0005a4:	00000000 	nop

Disassembly of section .vector_30:

9d0005c0 <__vector_dispatch_30>:
9d0005c0:	0b400abf 	j	9d002afc <.LFE0>
9d0005c4:	00000000 	nop

Disassembly of section .vector_31:

9d0005e0 <__vector_dispatch_31>:
9d0005e0:	0b400abf 	j	9d002afc <.LFE0>
9d0005e4:	00000000 	nop

Disassembly of section .vector_32:

9d000600 <__vector_dispatch_32>:
9d000600:	0b400abf 	j	9d002afc <.LFE0>
9d000604:	00000000 	nop

Disassembly of section .vector_33:

9d000620 <__vector_dispatch_33>:
9d000620:	0b400abf 	j	9d002afc <.LFE0>
9d000624:	00000000 	nop

Disassembly of section .vector_34:

9d000640 <__vector_dispatch_34>:
9d000640:	0b400abf 	j	9d002afc <.LFE0>
9d000644:	00000000 	nop

Disassembly of section .vector_35:

9d000660 <__vector_dispatch_35>:
9d000660:	0b400abf 	j	9d002afc <.LFE0>
9d000664:	00000000 	nop

Disassembly of section .vector_36:

9d000680 <__vector_dispatch_36>:
9d000680:	0b400abf 	j	9d002afc <.LFE0>
9d000684:	00000000 	nop

Disassembly of section .vector_37:

9d0006a0 <__vector_dispatch_37>:
9d0006a0:	0b400abf 	j	9d002afc <.LFE0>
9d0006a4:	00000000 	nop

Disassembly of section .vector_38:

9d0006c0 <__vector_dispatch_38>:
9d0006c0:	0b400abf 	j	9d002afc <.LFE0>
9d0006c4:	00000000 	nop

Disassembly of section .vector_39:

9d0006e0 <__vector_dispatch_39>:
9d0006e0:	0b400abf 	j	9d002afc <.LFE0>
9d0006e4:	00000000 	nop

Disassembly of section .vector_40:

9d000700 <__vector_dispatch_40>:
9d000700:	0b400abf 	j	9d002afc <.LFE0>
9d000704:	00000000 	nop

Disassembly of section .vector_41:

9d000720 <__vector_dispatch_41>:
9d000720:	0b400abf 	j	9d002afc <.LFE0>
9d000724:	00000000 	nop

Disassembly of section .vector_42:

9d000740 <__vector_dispatch_42>:
9d000740:	0b400abf 	j	9d002afc <.LFE0>
9d000744:	00000000 	nop

Disassembly of section .vector_43:

9d000760 <__vector_dispatch_43>:
9d000760:	0b400abf 	j	9d002afc <.LFE0>
9d000764:	00000000 	nop

Disassembly of section .vector_44:

9d000780 <__vector_dispatch_44>:
9d000780:	0b400abf 	j	9d002afc <.LFE0>
9d000784:	00000000 	nop

Disassembly of section .vector_45:

9d0007a0 <__vector_dispatch_45>:
9d0007a0:	0b400abf 	j	9d002afc <.LFE0>
9d0007a4:	00000000 	nop

Disassembly of section .vector_46:

9d0007c0 <__vector_dispatch_46>:
9d0007c0:	0b400abf 	j	9d002afc <.LFE0>
9d0007c4:	00000000 	nop

Disassembly of section .vector_47:

9d0007e0 <__vector_dispatch_47>:
9d0007e0:	0b400abf 	j	9d002afc <.LFE0>
9d0007e4:	00000000 	nop

Disassembly of section .vector_48:

9d000800 <__vector_dispatch_48>:
9d000800:	0b400abf 	j	9d002afc <.LFE0>
9d000804:	00000000 	nop

Disassembly of section .vector_49:

9d000820 <__vector_dispatch_49>:
9d000820:	0b400abf 	j	9d002afc <.LFE0>
9d000824:	00000000 	nop

Disassembly of section .vector_50:

9d000840 <__vector_dispatch_50>:
9d000840:	0b400abf 	j	9d002afc <.LFE0>
9d000844:	00000000 	nop

Disassembly of section .vector_51:

9d000860 <__vector_dispatch_51>:
9d000860:	0b400abf 	j	9d002afc <.LFE0>
9d000864:	00000000 	nop

Disassembly of section ._debug_exception:

bfc00480 <__DbgExecReturn>:
bfc00480:	409bf800 	mtc0	k1,c0_desave
bfc00484:	000000c0 	ehb
bfc00488:	3c1b9d00 	lui	k1,0x9d00
bfc0048c:	277b2b44 	addiu	k1,k1,11076
bfc00490:	13600002 	beqz	k1,bfc0049c <__DbgExecReturn+0x1c>
bfc00494:	00000000 	nop
bfc00498:	409bc000 	mtc0	k1,c0_depc
bfc0049c:	401bf800 	mfc0	k1,c0_desave
bfc004a0:	000000c0 	ehb
bfc004a4:	4200001f 	deret
bfc004a8:	00000000 	nop

Disassembly of section .text:

9d001e00 <NU32_Startup>:

// Perform startup routines:
//  Make NU32_LED1 and NU32_LED2 pins outputs (NU32_USER is by default an input)
//  Initialize the serial port - UART3 (no interrupt) 
//  Enable interrupts
void NU32_Startup() {
9d001e00:	27bdfff8 	addiu	sp,sp,-8
9d001e04:	afbf0004 	sw	ra,4(sp)
  // disable interrupts
  __builtin_disable_interrupts();
9d001e08:	41626000 	di	v0
9d001e0c:	000000c0 	ehb
  // see Chapter 2 "CPU for Devices with M4K Core" of the PIC32 reference manual
  // most of the other bits have prescribed values
  // microchip does not provide a _CP0_SET_CONFIG macro, so we directly use
  // the compiler built-in command _mtc0
  // to disable cache, use 0xa4210582 
  __builtin_mtc0(_CP0_CONFIG, _CP0_CONFIG_SELECT, 0xa4210583); 
9d001e10:	3c02a421 	lui	v0,0xa421
9d001e14:	24420583 	addiu	v0,v0,1411
9d001e18:	40828000 	mtc0	v0,c0_config
9d001e1c:	000000c0 	ehb
  
  // set the prefectch cache wait state to 2, as per the
  // electrical characteristics data sheet
  CHECONbits.PFMWS = 0x2;   
9d001e20:	3c02bf88 	lui	v0,0xbf88
9d001e24:	8c434000 	lw	v1,16384(v0)
9d001e28:	24050002 	li	a1,2
9d001e2c:	7ca31004 	ins	v1,a1,0x0,0x3
9d001e30:	ac434000 	sw	v1,16384(v0)

  //enable prefetch for cacheable and noncacheable memory
  CHECONbits.PREFEN = 0x3; 
9d001e34:	8c434000 	lw	v1,16384(v0)
9d001e38:	24040003 	li	a0,3
9d001e3c:	7c832904 	ins	v1,a0,0x4,0x2
9d001e40:	ac434000 	sw	v1,16384(v0)

  // 0 data RAM access wait states
  BMXCONbits.BMXWSDRM = 0x0;
9d001e44:	3c02bf88 	lui	v0,0xbf88
9d001e48:	8c432000 	lw	v1,8192(v0)
9d001e4c:	7c033184 	ins	v1,zero,0x6,0x1
9d001e50:	ac432000 	sw	v1,8192(v0)
  
  // enable multi vector interrupts
  INTCONbits.MVEC = 0x1;
9d001e54:	3c02bf88 	lui	v0,0xbf88
9d001e58:	8c461000 	lw	a2,4096(v0)
9d001e5c:	24030001 	li	v1,1
9d001e60:	7c666304 	ins	a2,v1,0xc,0x1
9d001e64:	ac461000 	sw	a2,4096(v0)

  // disable JTAG to get B10, B11, B12 and B13 back
  DDPCONbits.JTAGEN = 0;
9d001e68:	3c02bf81 	lui	v0,0xbf81
9d001e6c:	9046f200 	lbu	a2,-3584(v0)
9d001e70:	7c0618c4 	ins	a2,zero,0x3,0x1
9d001e74:	a046f200 	sb	a2,-3584(v0)

  TRISFCLR = 0x0003;  // Make F0 and F1 outputs (LED1 and LED2)
9d001e78:	3c02bf88 	lui	v0,0xbf88
9d001e7c:	ac446144 	sw	a0,24900(v0)
  NU32_LED1 = 1;      // LED1 is off
9d001e80:	3c02bf88 	lui	v0,0xbf88
9d001e84:	90446160 	lbu	a0,24928(v0)
9d001e88:	7c640004 	ins	a0,v1,0x0,0x1
9d001e8c:	a0446160 	sb	a0,24928(v0)
  NU32_LED2 = 0;      // LED2 is on
9d001e90:	90446160 	lbu	a0,24928(v0)
9d001e94:	7c040844 	ins	a0,zero,0x1,0x1
9d001e98:	a0446160 	sb	a0,24928(v0)

  // turn on UART3 without an interrupt
  U3MODEbits.BRGH = 0; // set baud to NU32_DESIRED_BAUD
9d001e9c:	3c02bf80 	lui	v0,0xbf80
9d001ea0:	94446400 	lhu	a0,25600(v0)
9d001ea4:	7c0418c4 	ins	a0,zero,0x3,0x1
9d001ea8:	a4446400 	sh	a0,25600(v0)
  U3BRG = ((NU32_SYS_FREQ / NU32_DESIRED_BAUD) / 16) - 1;
9d001eac:	24060014 	li	a2,20
9d001eb0:	3c04bf80 	lui	a0,0xbf80
9d001eb4:	ac866440 	sw	a2,25664(a0)

  // 8 bit, no parity bit, and 1 stop bit (8N1 setup)
  U3MODEbits.PDSEL = 0;
9d001eb8:	94446400 	lhu	a0,25600(v0)
9d001ebc:	7c041044 	ins	a0,zero,0x1,0x2
9d001ec0:	a4446400 	sh	a0,25600(v0)
  U3MODEbits.STSEL = 0;
9d001ec4:	94446400 	lhu	a0,25600(v0)
9d001ec8:	7c040004 	ins	a0,zero,0x0,0x1
9d001ecc:	a4446400 	sh	a0,25600(v0)

  // configure TX & RX pins as output & input pins
  U3STAbits.UTXEN = 1;
9d001ed0:	3c04bf80 	lui	a0,0xbf80
9d001ed4:	8c866410 	lw	a2,25616(a0)
9d001ed8:	7c665284 	ins	a2,v1,0xa,0x1
9d001edc:	ac866410 	sw	a2,25616(a0)
  U3STAbits.URXEN = 1;
9d001ee0:	8c866410 	lw	a2,25616(a0)
9d001ee4:	7c666304 	ins	a2,v1,0xc,0x1
9d001ee8:	ac866410 	sw	a2,25616(a0)
  // configure hardware flow control using RTS and CTS
  U3MODEbits.UEN = 2;
9d001eec:	94446400 	lhu	a0,25600(v0)
9d001ef0:	7ca44a04 	ins	a0,a1,0x8,0x2
9d001ef4:	a4446400 	sh	a0,25600(v0)

  // enable the uart
  U3MODEbits.ON = 1;
9d001ef8:	94446400 	lhu	a0,25600(v0)
9d001efc:	7c647bc4 	ins	a0,v1,0xf,0x1
9d001f00:	a4446400 	sh	a0,25600(v0)

  __builtin_enable_interrupts();
9d001f04:	41626020 	ei	v0
}
9d001f08:	8fbf0004 	lw	ra,4(sp)
9d001f0c:	03e00008 	jr	ra
9d001f10:	27bd0008 	addiu	sp,sp,8

9d001f14 <NU32_ReadUART3>:
// Read from UART3
// block other functions until you get a '\r' or '\n'
// send the pointer to your char array and the number of elements in the array
void NU32_ReadUART3(char * message, int maxLength) {
  char data = 0;
  int complete = 0, num_bytes = 0;
9d001f14:	00003021 	move	a2,zero
  // loop until you get a '\r' or '\n'
  while (!complete) {
    if (U3STAbits.URXDA) { // if data is available
9d001f18:	3c03bf80 	lui	v1,0xbf80
      data = U3RXREG;      // read the data
9d001f1c:	3c08bf80 	lui	t0,0xbf80
      if ((data == '\n') || (data == '\r')) {
9d001f20:	2407000a 	li	a3,10
9d001f24:	0b4007d9 	j	9d001f64 <NU32_ReadUART3+0x50>
9d001f28:	2409000d 	li	t1,13
void NU32_ReadUART3(char * message, int maxLength) {
  char data = 0;
  int complete = 0, num_bytes = 0;
  // loop until you get a '\r' or '\n'
  while (!complete) {
    if (U3STAbits.URXDA) { // if data is available
9d001f2c:	8c626410 	lw	v0,25616(v1)
9d001f30:	30420001 	andi	v0,v0,0x1
9d001f34:	1040fffd 	beqz	v0,9d001f2c <NU32_ReadUART3+0x18>
9d001f38:	00000000 	nop
      data = U3RXREG;      // read the data
9d001f3c:	8d026430 	lw	v0,25648(t0)
9d001f40:	7c021420 	seb	v0,v0
      if ((data == '\n') || (data == '\r')) {
9d001f44:	5047000e 	beql	v0,a3,9d001f80 <NU32_ReadUART3+0x6c>
9d001f48:	00862021 	addu	a0,a0,a2
9d001f4c:	1049000b 	beq	v0,t1,9d001f7c <NU32_ReadUART3+0x68>
9d001f50:	00865021 	addu	t2,a0,a2
        complete = 1;
      } else {
        message[num_bytes] = data;
9d001f54:	a1420000 	sb	v0,0(t2)
        ++num_bytes;
9d001f58:	24c60001 	addiu	a2,a2,1
        // roll over if the array is too small
        if (num_bytes >= maxLength) {
9d001f5c:	00c5102a 	slt	v0,a2,a1
          num_bytes = 0;
9d001f60:	0002300a 	movz	a2,zero,v0
void NU32_ReadUART3(char * message, int maxLength) {
  char data = 0;
  int complete = 0, num_bytes = 0;
  // loop until you get a '\r' or '\n'
  while (!complete) {
    if (U3STAbits.URXDA) { // if data is available
9d001f64:	8c626410 	lw	v0,25616(v1)
9d001f68:	30420001 	andi	v0,v0,0x1
9d001f6c:	1040ffef 	beqz	v0,9d001f2c <NU32_ReadUART3+0x18>
9d001f70:	00000000 	nop
9d001f74:	0b4007cf 	j	9d001f3c <NU32_ReadUART3+0x28>
9d001f78:	00000000 	nop
        }
      }
    }
  }
  // end the string
  message[num_bytes] = '\0';
9d001f7c:	00862021 	addu	a0,a0,a2
9d001f80:	03e00008 	jr	ra
9d001f84:	a0800000 	sb	zero,0(a0)

9d001f88 <NU32_WriteUART3>:
}

// Write a character array using UART3
void NU32_WriteUART3(const char * string) {
  while (*string != '\0') {
9d001f88:	80850000 	lb	a1,0(a0)
9d001f8c:	10a0000b 	beqz	a1,9d001fbc <NU32_WriteUART3+0x34>
9d001f90:	3c03bf80 	lui	v1,0xbf80
    while (U3STAbits.UTXBF) {
      ; // wait until tx buffer isn't full
    }
    U3TXREG = *string;
9d001f94:	3c06bf80 	lui	a2,0xbf80
}

// Write a character array using UART3
void NU32_WriteUART3(const char * string) {
  while (*string != '\0') {
    while (U3STAbits.UTXBF) {
9d001f98:	8c626410 	lw	v0,25616(v1)
9d001f9c:	30420200 	andi	v0,v0,0x200
9d001fa0:	1440fffd 	bnez	v0,9d001f98 <NU32_WriteUART3+0x10>
9d001fa4:	00000000 	nop
      ; // wait until tx buffer isn't full
    }
    U3TXREG = *string;
9d001fa8:	acc56420 	sw	a1,25632(a2)
    ++string;
9d001fac:	24840001 	addiu	a0,a0,1
  message[num_bytes] = '\0';
}

// Write a character array using UART3
void NU32_WriteUART3(const char * string) {
  while (*string != '\0') {
9d001fb0:	80850000 	lb	a1,0(a0)
9d001fb4:	14a0fff8 	bnez	a1,9d001f98 <NU32_WriteUART3+0x10>
9d001fb8:	00000000 	nop
9d001fbc:	03e00008 	jr	ra
9d001fc0:	00000000 	nop

Disassembly of section .text.libm:

9d001fc4 <__mchp_sqrtf>:
9d001fc4:	27bdffe0 	addiu	sp,sp,-32
9d001fc8:	afbf0000 	sw	ra,0(sp)
9d001fcc:	000445c2 	srl	t0,a0,0x17
9d001fd0:	00043a00 	sll	a3,a0,0x8
9d001fd4:	3c018000 	lui	at,0x8000
9d001fd8:	00e13825 	or	a3,a3,at
9d001fdc:	250dffff 	addiu	t5,t0,-1
9d001fe0:	2da100fe 	sltiu	at,t5,254
9d001fe4:	10200048 	beqz	at,9d002108 <Bspec>
9d001fe8:	00000000 	nop

9d001fec <Blab1>:
9d001fec:	afa40004 	sw	a0,4(sp)
9d001ff0:	afa70010 	sw	a3,16(sp)
9d001ff4:	afa80014 	sw	t0,20(sp)
9d001ff8:	00072025 	or	a0,zero,a3
9d001ffc:	0f40096f 	jal	9d0025bc <fpexsqrt>
9d002000:	00082825 	or	a1,zero,t0
9d002004:	00186025 	or	t4,zero,t8
9d002008:	00035825 	or	t3,zero,v1
9d00200c:	00025025 	or	t2,zero,v0
9d002010:	8fa80014 	lw	t0,20(sp)
9d002014:	8fa70010 	lw	a3,16(sp)
9d002018:	8fa40004 	lw	a0,4(sp)
9d00201c:	310d0001 	andi	t5,t0,0x1
9d002020:	11a00002 	beqz	t5,9d00202c <i3>
9d002024:	00000000 	nop
9d002028:	00073842 	srl	a3,a3,0x1

9d00202c <i3>:
9d00202c:	014a0019 	multu	t2,t2
9d002030:	00003012 	mflo	a2
9d002034:	00002810 	mfhi	a1
9d002038:	00a72823 	subu	a1,a1,a3
9d00203c:	00a66825 	or	t5,a1,a2
9d002040:	11a00027 	beqz	t5,9d0020e0 <Bret>
9d002044:	00000000 	nop
9d002048:	04a00012 	bltz	a1,9d002094 <Bloo1>
9d00204c:	00000000 	nop

9d002050 <Bloo2>:
9d002050:	254affff 	addiu	t2,t2,-1
9d002054:	2ccd0001 	sltiu	t5,a2,1
9d002058:	24c6ffff 	addiu	a2,a2,-1
9d00205c:	00ad2823 	subu	a1,a1,t5
9d002060:	00ca682b 	sltu	t5,a2,t2
9d002064:	00ca3023 	subu	a2,a2,t2
9d002068:	00ad2823 	subu	a1,a1,t5
9d00206c:	00ca682b 	sltu	t5,a2,t2
9d002070:	00ca3023 	subu	a2,a2,t2
9d002074:	00ad2823 	subu	a1,a1,t5
9d002078:	04a00019 	bltz	a1,9d0020e0 <Bret>
9d00207c:	00000000 	nop
9d002080:	00a66825 	or	t5,a1,a2
9d002084:	15a0fff2 	bnez	t5,9d002050 <Bloo2>
9d002088:	00000000 	nop
9d00208c:	10000014 	b	9d0020e0 <Bret>
9d002090:	00000000 	nop

9d002094 <Bloo1>:
9d002094:	254a0001 	addiu	t2,t2,1
9d002098:	2d4d0001 	sltiu	t5,t2,1
9d00209c:	15a0000f 	bnez	t5,9d0020dc <Blab3>
9d0020a0:	00000000 	nop
9d0020a4:	00ca3021 	addu	a2,a2,t2
9d0020a8:	00ca682b 	sltu	t5,a2,t2
9d0020ac:	00ad2821 	addu	a1,a1,t5
9d0020b0:	00ca3021 	addu	a2,a2,t2
9d0020b4:	00ca682b 	sltu	t5,a2,t2
9d0020b8:	00ad2821 	addu	a1,a1,t5
9d0020bc:	2ccd0001 	sltiu	t5,a2,1
9d0020c0:	24c6ffff 	addiu	a2,a2,-1
9d0020c4:	00ad2823 	subu	a1,a1,t5
9d0020c8:	04a0fff2 	bltz	a1,9d002094 <Bloo1>
9d0020cc:	00000000 	nop
9d0020d0:	00a66825 	or	t5,a1,a2
9d0020d4:	11a00002 	beqz	t5,9d0020e0 <Bret>
9d0020d8:	00000000 	nop

9d0020dc <Blab3>:
9d0020dc:	254affff 	addiu	t2,t2,-1

9d0020e0 <Bret>:
9d0020e0:	254a0080 	addiu	t2,t2,128
9d0020e4:	2d4d0080 	sltiu	t5,t2,128
9d0020e8:	016d5821 	addu	t3,t3,t5
9d0020ec:	000a1040 	sll	v0,t2,0x1
9d0020f0:	00021242 	srl	v0,v0,0x9
9d0020f4:	000b6dc0 	sll	t5,t3,0x17
9d0020f8:	004d1025 	or	v0,v0,t5

9d0020fc <B999>:
9d0020fc:	8fbf0000 	lw	ra,0(sp)
9d002100:	03e00008 	jr	ra
9d002104:	27bd0020 	addiu	sp,sp,32

9d002108 <Bspec>:
9d002108:	04810006 	bgez	a0,9d002124 <i6>
9d00210c:	00000000 	nop
9d002110:	00046840 	sll	t5,a0,0x1
9d002114:	15a00013 	bnez	t5,9d002164 <Bnan>
9d002118:	00000000 	nop
9d00211c:	1000fff7 	b	9d0020fc <B999>
9d002120:	00041025 	or	v0,zero,a0

9d002124 <i6>:
9d002124:	1500000a 	bnez	t0,9d002150 <i7>
9d002128:	00000000 	nop
9d00212c:	00e73821 	addu	a3,a3,a3
9d002130:	10e00005 	beqz	a3,9d002148 <i8>
9d002134:	00000000 	nop
9d002138:	70e52820 	clz	a1,a3
9d00213c:	01054023 	subu	t0,t0,a1
9d002140:	1000ffaa 	b	9d001fec <Blab1>
9d002144:	00a73804 	sllv	a3,a3,a1

9d002148 <i8>:
9d002148:	1000ffec 	b	9d0020fc <B999>
9d00214c:	24020000 	li	v0,0

9d002150 <i7>:
9d002150:	00e76821 	addu	t5,a3,a3
9d002154:	15a00003 	bnez	t5,9d002164 <Bnan>
9d002158:	00000000 	nop
9d00215c:	1000ffe7 	b	9d0020fc <B999>
9d002160:	00041025 	or	v0,zero,a0

9d002164 <Bnan>:
9d002164:	1000ffe5 	b	9d0020fc <B999>
9d002168:	3c02ffc0 	lui	v0,0xffc0
9d00216c:	00000000 	nop

Disassembly of section .text:

9d002170 <main>:
#include <math.h>
#include "NU32.h" 
#include <cp0defs.h>

int main(void){
9d002170:	27bdffb8 	addiu	sp,sp,-72
9d002174:	afbf0044 	sw	ra,68(sp)
9d002178:	afbe0040 	sw	s8,64(sp)
9d00217c:	03a0f021 	move	s8,sp
    float f1 = 2.07, f2; // four bytes for each float
9d002180:	3c029d00 	lui	v0,0x9d00
9d002184:	8c422ba0 	lw	v0,11168(v0)
9d002188:	afc20010 	sw	v0,16(s8)
    long double d1 = 2.07, d2; // eight bytes for each long double
9d00218c:	3c029d00 	lui	v0,0x9d00
9d002190:	8c432bac 	lw	v1,11180(v0)
9d002194:	8c422ba8 	lw	v0,11176(v0)
9d002198:	afc20018 	sw	v0,24(s8)
9d00219c:	afc3001c 	sw	v1,28(s8)
    unsigned int t1,t2,t3,t4,tns;
    _CP0_SET_COUNT(0);
9d0021a0:	00001021 	move	v0,zero
9d0021a4:	40824800 	mtc0	v0,c0_count
9d0021a8:	000000c0 	ehb
    f2 = cosf(f1);
9d0021ac:	8fc40010 	lw	a0,16(s8)
9d0021b0:	0f4008a6 	jal	9d002298 <.LFE7>
9d0021b4:	00000000 	nop
9d0021b8:	afc20020 	sw	v0,32(s8)
    t1 = _CP0_GET_COUNT();
9d0021bc:	40024800 	mfc0	v0,c0_count
9d0021c0:	afc20024 	sw	v0,36(s8)
    f2 = sqrtf(f1);
9d0021c4:	8fc40010 	lw	a0,16(s8)
9d0021c8:	0f400a58 	jal	9d002960 <sqrtf>
9d0021cc:	00000000 	nop
9d0021d0:	afc20020 	sw	v0,32(s8)
    t2 = _CP0_GET_COUNT();
9d0021d4:	40024800 	mfc0	v0,c0_count
9d0021d8:	afc20028 	sw	v0,40(s8)
    tns = t2 - t1;
9d0021dc:	8fc30028 	lw	v1,40(s8)
9d0021e0:	8fc20024 	lw	v0,36(s8)
9d0021e4:	00621023 	subu	v0,v1,v0
9d0021e8:	afc2002c 	sw	v0,44(s8)
    d2 = cos(d1);
9d0021ec:	8fc40018 	lw	a0,24(s8)
9d0021f0:	8fc5001c 	lw	a1,28(s8)
9d0021f4:	0f40092f 	jal	9d0024bc <__truncdfsf2>
9d0021f8:	00000000 	nop
9d0021fc:	00402021 	move	a0,v0
9d002200:	0f4008a6 	jal	9d002298 <.LFE7>
9d002204:	00000000 	nop
9d002208:	00402021 	move	a0,v0
9d00220c:	0f4009e5 	jal	9d002794 <__extendsfdf2>
9d002210:	00000000 	nop
9d002214:	afc20030 	sw	v0,48(s8)
9d002218:	afc30034 	sw	v1,52(s8)
    t3 = _CP0_GET_COUNT();
9d00221c:	40024800 	mfc0	v0,c0_count
9d002220:	afc20038 	sw	v0,56(s8)
    tns = t3 - t2;
9d002224:	8fc30038 	lw	v1,56(s8)
9d002228:	8fc20028 	lw	v0,40(s8)
9d00222c:	00621023 	subu	v0,v1,v0
9d002230:	afc2002c 	sw	v0,44(s8)
    d2 = sqrt(d1);
9d002234:	8fc40018 	lw	a0,24(s8)
9d002238:	8fc5001c 	lw	a1,28(s8)
9d00223c:	0f40092f 	jal	9d0024bc <__truncdfsf2>
9d002240:	00000000 	nop
9d002244:	00402021 	move	a0,v0
9d002248:	0f400a58 	jal	9d002960 <sqrtf>
9d00224c:	00000000 	nop
9d002250:	00402021 	move	a0,v0
9d002254:	0f4009e5 	jal	9d002794 <__extendsfdf2>
9d002258:	00000000 	nop
9d00225c:	afc20030 	sw	v0,48(s8)
9d002260:	afc30034 	sw	v1,52(s8)
    t4 = _CP0_GET_COUNT();
9d002264:	40024800 	mfc0	v0,c0_count
9d002268:	afc2003c 	sw	v0,60(s8)
    tns = t4 - t3;
9d00226c:	8fc3003c 	lw	v1,60(s8)
9d002270:	8fc20038 	lw	v0,56(s8)
9d002274:	00621023 	subu	v0,v1,v0
9d002278:	afc2002c 	sw	v0,44(s8)

    return(0);
9d00227c:	00001021 	move	v0,zero
9d002280:	03c0e821 	move	sp,s8
9d002284:	8fbf0044 	lw	ra,68(sp)
9d002288:	8fbe0040 	lw	s8,64(sp)
9d00228c:	27bd0048 	addiu	sp,sp,72
9d002290:	03e00008 	jr	ra
9d002294:	00000000 	nop

Disassembly of section .text.libm:

9d002298 <cosf>:
9d002298:	27bdfff0 	addiu	sp,sp,-16
9d00229c:	afbf0000 	sw	ra,0(sp)
9d0022a0:	0f4008ec 	jal	9d0023b0 <fpreduct>
9d0022a4:	afa40004 	sw	a0,4(sp)
9d0022a8:	00185025 	or	t2,zero,t8
9d0022ac:	00034825 	or	t1,zero,v1
9d0022b0:	00024025 	or	t0,zero,v0
9d0022b4:	05210003 	bgez	t1,9d0022c4 <i11>
9d0022b8:	8fa40004 	lw	a0,4(sp)
9d0022bc:	10000038 	b	9d0023a0 <C999>
9d0022c0:	00081025 	or	v0,zero,t0

9d0022c4 <i11>:
9d0022c4:	25440002 	addiu	a0,t2,2
9d0022c8:	00042082 	srl	a0,a0,0x2
9d0022cc:	000427c0 	sll	a0,a0,0x1f
9d0022d0:	01080019 	multu	t0,t0
9d0022d4:	00003810 	mfhi	a3
9d0022d8:	2405007e 	li	a1,126
9d0022dc:	00a92823 	subu	a1,a1,t1
9d0022e0:	00052840 	sll	a1,a1,0x1
9d0022e4:	2ca10020 	sltiu	at,a1,32
9d0022e8:	14200002 	bnez	at,9d0022f4 <L2>
9d0022ec:	00000000 	nop
9d0022f0:	34070000 	li	a3,0x0

9d0022f4 <L2>:
9d0022f4:	00a73806 	srlv	a3,a3,a1
9d0022f8:	254cffff 	addiu	t4,t2,-1
9d0022fc:	318c0002 	andi	t4,t4,0x2
9d002300:	1180000d 	beqz	t4,9d002338 <i12>
9d002304:	00000000 	nop
9d002308:	3c0ba000 	lui	t3,0xa000
9d00230c:	256b0010 	addiu	t3,t3,16
9d002310:	8d680000 	lw	t0,0(t3)
9d002314:	256b0004 	addiu	t3,t3,4

9d002318 <b13>:
9d002318:	00e80019 	multu	a3,t0
9d00231c:	00004010 	mfhi	t0
9d002320:	8d660000 	lw	a2,0(t3)
9d002324:	256b0004 	addiu	t3,t3,4
9d002328:	04c1fffb 	bgez	a2,9d002318 <b13>
9d00232c:	00c84023 	subu	t0,a2,t0
9d002330:	10000012 	b	9d00237c <e12>
9d002334:	2409007f 	li	t1,127

9d002338 <i12>:
9d002338:	3c0ba000 	lui	t3,0xa000
9d00233c:	256b0000 	addiu	t3,t3,0
9d002340:	8d650000 	lw	a1,0(t3)
9d002344:	256b0004 	addiu	t3,t3,4

9d002348 <b14>:
9d002348:	00e50019 	multu	a3,a1
9d00234c:	00002810 	mfhi	a1
9d002350:	8d660000 	lw	a2,0(t3)
9d002354:	256b0004 	addiu	t3,t3,4
9d002358:	04c1fffb 	bgez	a2,9d002348 <b14>
9d00235c:	00c52823 	subu	a1,a2,a1
9d002360:	18a00003 	blez	a1,9d002370 <i15>
9d002364:	00000000 	nop
9d002368:	00052840 	sll	a1,a1,0x1
9d00236c:	2529ffff 	addiu	t1,t1,-1

9d002370 <i15>:
9d002370:	25290001 	addiu	t1,t1,1
9d002374:	01050019 	multu	t0,a1
9d002378:	00004010 	mfhi	t0

9d00237c <e12>:
9d00237c:	19000003 	blez	t0,9d00238c <i16>
9d002380:	00000000 	nop
9d002384:	00084040 	sll	t0,t0,0x1
9d002388:	2529ffff 	addiu	t1,t1,-1

9d00238c <i16>:
9d00238c:	00084040 	sll	t0,t0,0x1
9d002390:	00084242 	srl	t0,t0,0x9
9d002394:	000965c0 	sll	t4,t1,0x17
9d002398:	010c4025 	or	t0,t0,t4
9d00239c:	01041025 	or	v0,t0,a0

9d0023a0 <C999>:
9d0023a0:	8fbf0000 	lw	ra,0(sp)
9d0023a4:	03e00008 	jr	ra
9d0023a8:	27bd0010 	addiu	sp,sp,16
9d0023ac:	00000000 	nop

9d0023b0 <fpreduct>:
9d0023b0:	000435c2 30c600ff 00042a00 3c018000     .5.....0.*.....<
9d0023c0:	00a12825 24070000 24c8ff82 05000032     %(.....$...$2...
9d0023d0:	00000000 29010020 10200034 00000000     .... ..)4. .....
9d0023e0:	00052882 24090000 3c0b10b4 356b611a     .(.....$...<.ak5
9d0023f0:	3c0a6487 354aed51                       .d.<Q.J5

9d0023f8 <b1>:
9d0023f8:	00073840 	sll	a3,a3,0x1
9d0023fc:	24e70001 	addiu	a3,a3,1
9d002400:	0120602a 	slt	t4,t1,zero
9d002404:	01294821 	addu	t1,t1,t1
9d002408:	00a52821 	addu	a1,a1,a1
9d00240c:	00ac2821 	addu	a1,a1,t4
9d002410:	012b602b 	sltu	t4,t1,t3
9d002414:	012b4823 	subu	t1,t1,t3
9d002418:	00ac682b 	sltu	t5,a1,t4
9d00241c:	00ac2823 	subu	a1,a1,t4
9d002420:	00aa602b 	sltu	t4,a1,t2
9d002424:	018d6025 	or	t4,t4,t5
9d002428:	11800006 	beqz	t4,9d002444 <i2>
9d00242c:	00aa2823 	subu	a1,a1,t2
9d002430:	24e7ffff 	addiu	a3,a3,-1
9d002434:	012b4821 	addu	t1,t1,t3
9d002438:	012b602b 	sltu	t4,t1,t3
9d00243c:	00aa2821 	addu	a1,a1,t2
9d002440:	00ac2821 	addu	a1,a1,t4

9d002444 <i2>:
9d002444:	2508ffff 	addiu	t0,t0,-1
9d002448:	0501ffeb 	bgez	t0,9d0023f8 <b1>
9d00244c:	00000000 	nop
9d002450:	30ec0001 	andi	t4,a3,0x1
9d002454:	11800007 	beqz	t4,9d002474 <i3>
9d002458:	00000000 	nop
9d00245c:	0169602b 	sltu	t4,t3,t1
9d002460:	01695823 	subu	t3,t3,t1
9d002464:	014c5023 	subu	t2,t2,t4
9d002468:	01455023 	subu	t2,t2,a1
9d00246c:	000b4825 	or	t1,zero,t3
9d002470:	000a2825 	or	a1,zero,t2

9d002474 <i3>:
9d002474:	2406007f 	li	a2,127

9d002478 <b4>:
9d002478:	04a00007 	bltz	a1,9d002498 <Aret>
9d00247c:	00000000 	nop
9d002480:	0120602a 	slt	t4,t1,zero
9d002484:	01294821 	addu	t1,t1,t1
9d002488:	00a52821 	addu	a1,a1,a1
9d00248c:	00ac2821 	addu	a1,a1,t4
9d002490:	1000fff9 	b	9d002478 <b4>
9d002494:	24c6ffff 	addiu	a2,a2,-1

9d002498 <Aret>:
9d002498:	00051025 	or	v0,zero,a1
9d00249c:	00061825 	or	v1,zero,a2
9d0024a0:	0007c025 	or	t8,zero,a3

9d0024a4 <A999>:
9d0024a4:	03e00008 	jr	ra
9d0024a8:	00000000 	nop

9d0024ac <Anan>:
9d0024ac:	2406ffff 	li	a2,-1
9d0024b0:	1000fff9 	b	9d002498 <Aret>
9d0024b4:	3c05ffc0 	lui	a1,0xffc0
9d0024b8:	00000000 	nop

Disassembly of section .text.dptofp:

9d0024bc <__truncdfsf2>:
9d0024bc:	00053ac0 00045d42 00eb3825 000432c0     .:..B]..%8...2..
9d0024cc:	3c018000 00e13825 3c018000 00a14824     ...<%8.....<$H..
9d0024dc:	00054040 00084542 2508fc80 250bffff     @@..BE.....%...%
9d0024ec:	2d6100fe 10200012 00000000              ..a-.. .....

9d0024f8 <Hlab1>:
9d0024f8:	10c00002 	beqz	a2,9d002504 <i45>
9d0024fc:	00000000 	nop
9d002500:	34e70001 	ori	a3,a3,0x1

9d002504 <i45>:
9d002504:	24e70080 	addiu	a3,a3,128
9d002508:	2ceb0080 	sltiu	t3,a3,128
9d00250c:	010b4021 	addu	t0,t0,t3
9d002510:	00075a02 	srl	t3,a3,0x8
9d002514:	316b0001 	andi	t3,t3,0x1
9d002518:	00eb3823 	subu	a3,a3,t3
9d00251c:	00073840 	sll	a3,a3,0x1
9d002520:	00073a42 	srl	a3,a3,0x9
9d002524:	00085dc0 	sll	t3,t0,0x17
9d002528:	00eb3825 	or	a3,a3,t3
9d00252c:	00e91025 	or	v0,a3,t1

9d002530 <H999>:
9d002530:	03e00008 	jr	ra
9d002534:	00000000 	nop
9d002538:	00000000 	nop

9d00253c <Hspec>:
9d00253c:	2401047f 	li	at,1151
9d002540:	15010007 	bne	t0,at,9d002560 <i46>
9d002544:	00000000 	nop
9d002548:	00075840 	sll	t3,a3,0x1
9d00254c:	01665825 	or	t3,t3,a2
9d002550:	11600003 	beqz	t3,9d002560 <i46>
9d002554:	00000000 	nop
9d002558:	1000fff5 	b	9d002530 <H999>
9d00255c:	3c02ffc0 	lui	v0,0xffc0

9d002560 <i46>:
9d002560:	290100ff 	slti	at,t0,255
9d002564:	14200004 	bnez	at,9d002578 <i48>
9d002568:	00000000 	nop
9d00256c:	3c017f80 	lui	at,0x7f80
9d002570:	1000ffef 	b	9d002530 <H999>
9d002574:	01211025 	or	v0,t1,at

9d002578 <i48>:
9d002578:	240a0001 	li	t2,1
9d00257c:	01485023 	subu	t2,t2,t0
9d002580:	2d410020 	sltiu	at,t2,32
9d002584:	14200003 	bnez	at,9d002594 <i49>
9d002588:	00000000 	nop
9d00258c:	1000ffe8 	b	9d002530 <H999>
9d002590:	00091025 	or	v0,zero,t1

9d002594 <i49>:
9d002594:	240c0020 	li	t4,32
9d002598:	018a6023 	subu	t4,t4,t2
9d00259c:	01875804 	sllv	t3,a3,t4
9d0025a0:	00cb3025 	or	a2,a2,t3
9d0025a4:	01473806 	srlv	a3,a3,t2
9d0025a8:	24080000 	li	t0,0
9d0025ac:	3c018000 	lui	at,0x8000
9d0025b0:	1000ffd1 	b	9d0024f8 <Hlab1>
9d0025b4:	00e13825 	or	a3,a3,at
9d0025b8:	00000000 	nop

Disassembly of section .text.libm.fpexsqrt:

9d0025bc <fpexsqrt>:
9d0025bc:	1080003a 00000000 30ad0001 11a0000b     :..........0....
9d0025cc:	00000000 3c0967f2 35291800 00890019     .....g.<..)5....
9d0025dc:	00004810 3c014d13 34214800 01214821     .H...M.<.H!4!H!.
9d0025ec:	00042042 10000007 24a50001              B .........$

9d0025f8 <i1>:
9d0025f8:	3c099300 	lui	t1,0x9300
9d0025fc:	00890019 	multu	a0,t1
9d002600:	00004810 	mfhi	t1
9d002604:	3c016cff 	lui	at,0x6cff
9d002608:	3421fc00 	ori	at,at,0xfc00
9d00260c:	01214821 	addu	t1,t1,at

9d002610 <e1>:
9d002610:	00053843 	sra	a3,a1,0x1
9d002614:	24e7003f 	addiu	a3,a3,63
9d002618:	00094bc2 	srl	t1,t1,0xf
9d00261c:	012001f4 	teq	t1,zero,0x7
9d002620:	0089001b 	divu	zero,a0,t1
9d002624:	00005012 	mflo	t2
9d002628:	00094b80 	sll	t1,t1,0xe
9d00262c:	000a5400 	sll	t2,t2,0x10
9d002630:	012a4821 	addu	t1,t1,t2
9d002634:	012a682b 	sltu	t5,t1,t2
9d002638:	012d4823 	subu	t1,t1,t5
9d00263c:	3c0a8000 	lui	t2,0x8000
9d002640:	00095c02 	srl	t3,t1,0x10
9d002644:	016001f4 	teq	t3,zero,0x7
9d002648:	014b001b 	divu	zero,t2,t3
9d00264c:	00005012 	mflo	t2
9d002650:	000a5400 	sll	t2,t2,0x10
9d002654:	15400002 	bnez	t2,9d002660 <i2>
9d002658:	00000000 	nop
9d00265c:	240affff 	li	t2,-1

9d002660 <i2>:
9d002660:	012a0019 	multu	t1,t2
9d002664:	00005810 	mfhi	t3
9d002668:	000b5823 	negu	t3,t3
9d00266c:	014b0019 	multu	t2,t3
9d002670:	00005010 	mfhi	t2
9d002674:	01440019 	multu	t2,a0
9d002678:	00005010 	mfhi	t2
9d00267c:	000a5040 	sll	t2,t2,0x1
9d002680:	00094842 	srl	t1,t1,0x1
9d002684:	012a4821 	addu	t1,t1,t2
9d002688:	012a682b 	sltu	t5,t1,t2
9d00268c:	012d4823 	subu	t1,t1,t5
9d002690:	00093025 	or	a2,zero,t1

9d002694 <Aret>:
9d002694:	00061025 	or	v0,zero,a2
9d002698:	00071825 	or	v1,zero,a3
9d00269c:	0008c025 	or	t8,zero,t0

9d0026a0 <A999>:
9d0026a0:	03e00008 	jr	ra
9d0026a4:	00000000 	nop

9d0026a8 <Azer>:
9d0026a8:	24070000 	li	a3,0
9d0026ac:	1000fff9 	b	9d002694 <Aret>
9d0026b0:	00073025 	or	a2,zero,a3
9d0026b4:	00000000 	nop

Disassembly of section .text.general_exception:

9d0026b8 <_general_exception_context>:
9d0026b8:	27bdffa8 	addiu	sp,sp,-88
9d0026bc:	afa10004 	sw	at,4(sp)
9d0026c0:	afa20008 	sw	v0,8(sp)
9d0026c4:	afa3000c 	sw	v1,12(sp)
9d0026c8:	afa40010 	sw	a0,16(sp)
9d0026cc:	afa50014 	sw	a1,20(sp)
9d0026d0:	afa60018 	sw	a2,24(sp)
9d0026d4:	afa7001c 	sw	a3,28(sp)
9d0026d8:	afa80020 	sw	t0,32(sp)
9d0026dc:	afa90024 	sw	t1,36(sp)
9d0026e0:	afaa0028 	sw	t2,40(sp)
9d0026e4:	afab002c 	sw	t3,44(sp)
9d0026e8:	afac0030 	sw	t4,48(sp)
9d0026ec:	afad0034 	sw	t5,52(sp)
9d0026f0:	afae0038 	sw	t6,56(sp)
9d0026f4:	afaf003c 	sw	t7,60(sp)
9d0026f8:	afb80040 	sw	t8,64(sp)
9d0026fc:	afb90044 	sw	t9,68(sp)
9d002700:	afbf0048 	sw	ra,72(sp)
9d002704:	00004012 	mflo	t0
9d002708:	afa8004c 	sw	t0,76(sp)
9d00270c:	00004010 	mfhi	t0
9d002710:	afa80050 	sw	t0,80(sp)
9d002714:	3c1a9d00 	lui	k0,0x9d00
9d002718:	275a2ab4 	addiu	k0,k0,10932
9d00271c:	00000000 	nop
9d002720:	40046800 	mfc0	a0,c0_cause
9d002724:	40056000 	mfc0	a1,c0_status
9d002728:	0340f809 	jalr	k0
9d00272c:	00000000 	nop
9d002730:	8fa80050 	lw	t0,80(sp)
9d002734:	01000011 	mthi	t0
9d002738:	8fa8004c 	lw	t0,76(sp)
9d00273c:	01000013 	mtlo	t0
9d002740:	8fa10004 	lw	at,4(sp)
9d002744:	8fa20008 	lw	v0,8(sp)
9d002748:	8fa3000c 	lw	v1,12(sp)
9d00274c:	8fa40010 	lw	a0,16(sp)
9d002750:	8fa50014 	lw	a1,20(sp)
9d002754:	8fa60018 	lw	a2,24(sp)
9d002758:	8fa7001c 	lw	a3,28(sp)
9d00275c:	8fa80020 	lw	t0,32(sp)
9d002760:	8fa90024 	lw	t1,36(sp)
9d002764:	8faa0028 	lw	t2,40(sp)
9d002768:	8fab002c 	lw	t3,44(sp)
9d00276c:	8fac0030 	lw	t4,48(sp)
9d002770:	8fad0034 	lw	t5,52(sp)
9d002774:	8fae0038 	lw	t6,56(sp)
9d002778:	8faf003c 	lw	t7,60(sp)
9d00277c:	8fb80040 	lw	t8,64(sp)
9d002780:	8fb90044 	lw	t9,68(sp)
9d002784:	8fbf0048 	lw	ra,72(sp)
9d002788:	27bd0058 	addiu	sp,sp,88
9d00278c:	000000c0 	ehb
9d002790:	42000018 	eret

Disassembly of section .text.fptodp:

9d002794 <__extendsfdf2>:
9d002794:	00043dc2 30e700ff 3c018000 00813024     .=.....0...<$0..
9d0027a4:	24e9ffff 2d2100fe 1020000d 00000000     ...$..!-.. .....

9d0027b4 <Glab1>:
9d0027b4:	24e70380 	addiu	a3,a3,896
9d0027b8:	00044a40 	sll	t1,a0,0x9
9d0027bc:	00094b02 	srl	t1,t1,0xc
9d0027c0:	00c93025 	or	a2,a2,t1
9d0027c4:	00042f40 	sll	a1,a0,0x1d

9d0027c8 <Gret>:
9d0027c8:	00074d00 	sll	t1,a3,0x14
9d0027cc:	00c93025 	or	a2,a2,t1
9d0027d0:	00051025 	or	v0,zero,a1
9d0027d4:	00061825 	or	v1,zero,a2

9d0027d8 <G999>:
9d0027d8:	03e00008 	jr	ra
9d0027dc:	00000000 	nop
9d0027e0:	00000000 	nop

9d0027e4 <Gspec>:
9d0027e4:	24050000 	li	a1,0
9d0027e8:	00842021 	addu	a0,a0,a0
9d0027ec:	1080fff6 	beqz	a0,9d0027c8 <Gret>
9d0027f0:	00000000 	nop
9d0027f4:	14e00009 	bnez	a3,9d00281c <i42>
9d0027f8:	00000000 	nop

9d0027fc <b43>:
9d0027fc:	24e7ffff 	addiu	a3,a3,-1
9d002800:	00842021 	addu	a0,a0,a0
9d002804:	3c010080 	lui	at,0x80
9d002808:	0081082b 	sltu	at,a0,at
9d00280c:	1420fffb 	bnez	at,9d0027fc <b43>
9d002810:	00000000 	nop
9d002814:	1000ffe7 	b	9d0027b4 <Glab1>
9d002818:	00000000 	nop

9d00281c <i42>:
9d00281c:	240707ff 	li	a3,2047
9d002820:	3c01ff00 	lui	at,0xff00
9d002824:	34210001 	ori	at,at,0x1
9d002828:	0081082b 	sltu	at,a0,at
9d00282c:	1420ffe6 	bnez	at,9d0027c8 <Gret>
9d002830:	00000000 	nop
9d002834:	1000ffe4 	b	9d0027c8 <Gret>
9d002838:	3c06fff8 	lui	a2,0xfff8
9d00283c:	00000000 	nop

Disassembly of section .text.fpcmp:

9d002840 <__eqsf2>:
9d002840:	2408fffe 00043040 00053840 00c74825     ...$@0..@8..%H..
9d002850:	1120001b 00000000 3c01ff00 34210001     .. ........<..!4
9d002860:	00c1082b 1020001a 00000000 3c01ff00     +..... ........<
9d002870:	34210001 00e1082b 10200015 00000000     ..!4+..... .....
9d002880:	04810002 00063042 00063023              ....B0..#0..

9d00288c <i48>:
9d00288c:	04a10002 	bgez	a1,9d002898 <i49>
9d002890:	00073842 	srl	a3,a3,0x1
9d002894:	00073823 	negu	a3,a3

9d002898 <i49>:
9d002898:	00c7082a 	slt	at,a2,a3
9d00289c:	10200003 	beqz	at,9d0028ac <i50>
9d0028a0:	00000000 	nop
9d0028a4:	10000007 	b	9d0028c4 <J999>
9d0028a8:	2402ffff 	li	v0,-1

9d0028ac <i50>:
9d0028ac:	00e6082a 	slt	at,a3,a2
9d0028b0:	10200003 	beqz	at,9d0028c0 <Jequ>
9d0028b4:	00000000 	nop
9d0028b8:	10000002 	b	9d0028c4 <J999>
9d0028bc:	24020001 	li	v0,1

9d0028c0 <Jequ>:
9d0028c0:	24020000 	li	v0,0

9d0028c4 <J999>:
9d0028c4:	03e00008 	jr	ra
9d0028c8:	00000000 	nop
9d0028cc:	00000000 	nop

9d0028d0 <Jnan>:
9d0028d0:	1000fffc 	b	9d0028c4 <J999>
9d0028d4:	00081025 	or	v0,zero,t0
9d0028d8:	00000000 	nop

Disassembly of section .text:

9d0028dc <__pic32_data_init>:
9d0028dc:	03e01821 	move	v1,ra

9d0028e0 <_dinit_init>:
9d0028e0:	3c089d00 	lui	t0,0x9d00
9d0028e4:	25082a1c 	addiu	t0,t0,10780
9d0028e8:	8d090000 	lw	t1,0(t0)
9d0028ec:	11200018 	beqz	t1,9d002950 <_dinit_end+0x18>
9d0028f0:	25080004 	addiu	t0,t0,4
9d0028f4:	8d0a0000 	lw	t2,0(t0)
9d0028f8:	25080004 	addiu	t0,t0,4
9d0028fc:	8d0b0000 	lw	t3,0(t0)
9d002900:	11600009 	beqz	t3,9d002928 <_dinit_clear>
9d002904:	25080004 	addiu	t0,t0,4

9d002908 <_dinit_copy>:
9d002908:	910c0000 	lbu	t4,0(t0)
9d00290c:	254affff 	addiu	t2,t2,-1
9d002910:	25080001 	addiu	t0,t0,1
9d002914:	a12c0000 	sb	t4,0(t1)
9d002918:	1540fffb 	bnez	t2,9d002908 <_dinit_copy>
9d00291c:	25290001 	addiu	t1,t1,1
9d002920:	10000005 	b	9d002938 <_dinit_end>
9d002924:	00000000 	nop

9d002928 <_dinit_clear>:
9d002928:	a1200000 	sb	zero,0(t1)
9d00292c:	254affff 	addiu	t2,t2,-1
9d002930:	1540fffd 	bnez	t2,9d002928 <_dinit_clear>
9d002934:	25290001 	addiu	t1,t1,1

9d002938 <_dinit_end>:
9d002938:	25080003 	addiu	t0,t0,3
9d00293c:	240afffc 	li	t2,-4
9d002940:	01484024 	and	t0,t2,t0
9d002944:	8d090000 	lw	t1,0(t0)
9d002948:	1520ffe7 	bnez	t1,9d0028e8 <_dinit_init+0x8>
9d00294c:	00000000 	nop
9d002950:	0060f821 	move	ra,v1
9d002954:	03e00008 	jr	ra
9d002958:	00000000 	nop
9d00295c:	00000000 	nop

Disassembly of section .text.sqrtf:

9d002960 <sqrtf>:
9d002960:	27bdffe8 	addiu	sp,sp,-24

9d002964 <.LCFI0>:
9d002964:	afbf0014 	sw	ra,20(sp)
9d002968:	afb00010 	sw	s0,16(sp)
9d00296c:	3c02a000 	lui	v0,0xa000
9d002970:	8c420024 	lw	v0,36(v0)
9d002974:	30420001 	andi	v0,v0,0x1
9d002978:	10400005 	beqz	v0,9d002990 <.LCFI0+0x2c>
9d00297c:	00808021 	move	s0,a0
9d002980:	0f400a10 	jal	9d002840 <__eqsf2>
9d002984:	00002821 	move	a1,zero
9d002988:	04400007 	bltz	v0,9d0029a8 <.LCFI0+0x44>
9d00298c:	24030021 	li	v1,33
9d002990:	0f4007f1 	jal	9d001fc4 <.LFE9>
9d002994:	02002021 	move	a0,s0
9d002998:	8fbf0014 	lw	ra,20(sp)
9d00299c:	8fb00010 	lw	s0,16(sp)
9d0029a0:	03e00008 	jr	ra
9d0029a4:	27bd0018 	addiu	sp,sp,24
9d0029a8:	3c02a000 	lui	v0,0xa000
9d0029ac:	ac430028 	sw	v1,40(v0)
9d0029b0:	0f4007f1 	jal	9d001fc4 <.LFE9>
9d0029b4:	02002021 	move	a0,s0
9d0029b8:	8fbf0014 	lw	ra,20(sp)
9d0029bc:	8fb00010 	lw	s0,16(sp)
9d0029c0:	03e00008 	jr	ra
9d0029c4:	27bd0018 	addiu	sp,sp,24

Disassembly of section .text.main_entry:

9d0029c8 <_main_entry>:
9d0029c8:	3c040000 	lui	a0,0x0
9d0029cc:	27bdffe8 	addiu	sp,sp,-24
9d0029d0:	24840000 	addiu	a0,a0,0
9d0029d4:	10800003 	beqz	a0,9d0029e4 <_main_entry+0x1c>
9d0029d8:	afbf0014 	sw	ra,20(sp)
9d0029dc:	0080f809 	jalr	a0
9d0029e0:	00000000 	nop
9d0029e4:	30840000 	andi	a0,a0,0x0
9d0029e8:	30a50000 	andi	a1,a1,0x0
9d0029ec:	3c089d00 	lui	t0,0x9d00
9d0029f0:	25082170 	addiu	t0,t0,8560
9d0029f4:	0100f809 	jalr	t0
9d0029f8:	00000000 	nop

9d0029fc <__crt0_exit>:
9d0029fc:	3c020000 24420000 10400003 00000000     ...<..B$..@.....
9d002a0c:	0040f809 00000000 1000fff9 00000000     ..@.............

Disassembly of section .dinit:

9d002a1c <.dinit>:
9d002a1c:	a0000000 	sb	zero,0(zero)
9d002a20:	00000024 	and	zero,zero,zero
9d002a24:	00000001 	movf	zero,zero,$fcc0
9d002a28:	00067677 	0x67677
9d002a2c:	01111553 	0x1111553
9d002a30:	15555724 	bne	t2,s5,9d0186c4 <.LFE0+0x15b04>
9d002a34:	8000006e 	lb	zero,110(zero)
9d002a38:	0000ceb4 	teq	zero,zero,0x33a
9d002a3c:	002d867d 	0x2d867d
9d002a40:	05555837 	0x5555837
9d002a44:	40000089 	0x40000089
9d002a48:	80000044 	lb	zero,68(zero)
9d002a4c:	a0000024 	sb	zero,36(zero)
9d002a50:	00000004 	sllv	zero,zero,zero
9d002a54:	00000001 	movf	zero,zero,$fcc0
9d002a58:	00000001 	movf	zero,zero,$fcc0
9d002a5c:	a0000028 	sb	zero,40(zero)
9d002a60:	00000004 	sllv	zero,zero,zero
	...

Disassembly of section .text._bootstrap_exception_handler:

9d002a6c <_bootstrap_exception_handler>:
9d002a6c:	3c020000 	lui	v0,0x0
9d002a70:	24420000 	addiu	v0,v0,0
9d002a74:	10400005 	beqz	v0,9d002a8c <_bootstrap_exception_handler+0x20>
9d002a78:	3c020000 	lui	v0,0x0
9d002a7c:	24420000 	addiu	v0,v0,0
9d002a80:	10400003 	beqz	v0,9d002a90 <_bootstrap_exception_handler+0x24>
9d002a84:	3c029d00 	lui	v0,0x9d00
9d002a88:	7000003f 	sdbbp
9d002a8c:	3c029d00 	lui	v0,0x9d00
9d002a90:	24422b44 	addiu	v0,v0,11076
9d002a94:	10400005 	beqz	v0,9d002aac <.LCFI2>
9d002a98:	00000000 	nop
9d002a9c:	27bdffe8 	addiu	sp,sp,-24

9d002aa0 <.LCFI0>:
9d002aa0:	afbf0014 	sw	ra,20(sp)
9d002aa4:	0040f809 	jalr	v0
9d002aa8:	00000000 	nop

9d002aac <.LCFI2>:
9d002aac:	0b400aab 	j	9d002aac <.LCFI2>
9d002ab0:	00000000 	nop

Disassembly of section .text._general_exception_handler:

9d002ab4 <_general_exception_handler>:
9d002ab4:	3c020000 	lui	v0,0x0
9d002ab8:	24420000 	addiu	v0,v0,0
9d002abc:	10400005 	beqz	v0,9d002ad4 <_general_exception_handler+0x20>
9d002ac0:	3c020000 	lui	v0,0x0
9d002ac4:	24420000 	addiu	v0,v0,0
9d002ac8:	10400003 	beqz	v0,9d002ad8 <_general_exception_handler+0x24>
9d002acc:	3c029d00 	lui	v0,0x9d00
9d002ad0:	7000003f 	sdbbp
9d002ad4:	3c029d00 	lui	v0,0x9d00
9d002ad8:	24422b44 	addiu	v0,v0,11076
9d002adc:	10400005 	beqz	v0,9d002af4 <.LCFI2>
9d002ae0:	00000000 	nop
9d002ae4:	27bdffe8 	addiu	sp,sp,-24

9d002ae8 <.LCFI0>:
9d002ae8:	afbf0014 	sw	ra,20(sp)
9d002aec:	0040f809 	jalr	v0
9d002af0:	00000000 	nop

9d002af4 <.LCFI2>:
9d002af4:	0b400abd 	j	9d002af4 <.LCFI2>
9d002af8:	00000000 	nop

Disassembly of section .vector_default:

9d002afc <_DefaultInterrupt>:
9d002afc:	3c020000 	lui	v0,0x0
9d002b00:	24420000 	addiu	v0,v0,0
9d002b04:	10400007 	beqz	v0,9d002b24 <_DefaultInterrupt+0x28>
9d002b08:	3c020000 	lui	v0,0x0
9d002b0c:	24420000 	addiu	v0,v0,0
9d002b10:	50400005 	beqzl	v0,9d002b28 <_DefaultInterrupt+0x2c>
9d002b14:	3c029d00 	lui	v0,0x9d00
9d002b18:	7000003f 	sdbbp
9d002b1c:	03e00008 	jr	ra
9d002b20:	00000000 	nop
9d002b24:	3c029d00 	lui	v0,0x9d00
9d002b28:	24422b44 	addiu	v0,v0,11076
9d002b2c:	10400003 	beqz	v0,9d002b3c <_DefaultInterrupt+0x40>
9d002b30:	00000000 	nop
9d002b34:	0040f809 	jalr	v0
9d002b38:	00000000 	nop
9d002b3c:	03e00008 	jr	ra
9d002b40:	00000000 	nop

Disassembly of section .text:

9d002b44 <__pic32_software_reset>:
9d002b44:	41606000 	di
9d002b48:	000000c0 	ehb
9d002b4c:	3c03aa99 	lui	v1,0xaa99
9d002b50:	3c02bf81 	lui	v0,0xbf81
9d002b54:	24636655 	addiu	v1,v1,26197
9d002b58:	ac40f230 	sw	zero,-3536(v0)
9d002b5c:	ac43f230 	sw	v1,-3536(v0)
9d002b60:	3c035566 	lui	v1,0x5566
9d002b64:	346399aa 	ori	v1,v1,0x99aa
9d002b68:	ac43f230 	sw	v1,-3536(v0)
9d002b6c:	3c02bf81 	lui	v0,0xbf81
9d002b70:	24030001 	li	v1,1
9d002b74:	ac43f618 	sw	v1,-2536(v0)
9d002b78:	3c02bf81 	lui	v0,0xbf81
9d002b7c:	8c42f610 	lw	v0,-2544(v0)
9d002b80:	0b400ad3 	j	9d002b4c <__pic32_software_reset+0x8>
9d002b84:	00000000 	nop

9d002b88 <_nmi_handler>:
9d002b88:	401a6000 	mfc0	k0,c0_status
9d002b8c:	3c1bffbf 	lui	k1,0xffbf
9d002b90:	377bffff 	ori	k1,k1,0xffff
9d002b94:	035bd024 	and	k0,k0,k1
9d002b98:	409a6000 	mtc0	k0,c0_status
9d002b9c:	42000018 	eret

Disassembly of section .rodata:

9d002ba0 <.rodata>:
9d002ba0:	40047ae1 	0x40047ae1
9d002ba4:	00000000 	nop
9d002ba8:	20000000 	addi	zero,zero,0
9d002bac:	40008f5c 	0x40008f5c

Disassembly of section .text._on_reset:

9d002bb0 <_on_reset>:
9d002bb0:	03e00008 	jr	ra
9d002bb4:	00000000 	nop

Disassembly of section .text._on_bootstrap:

9d002bb8 <_on_bootstrap>:
9d002bb8:	03e00008 	jr	ra
9d002bbc:	00000000 	nop
